target datalayout = "e-m:e-p270:32:32-p271:32:32-p272:64:64-i64:64-i128:128-f80:128-n8:16:32:64-S128"
target triple = "x86_64-pc-linux-gnu"

%struct._object = type { %union.anon, ptr }
%union.anon = type { i64 }
%struct.reversedobject = type { %struct._object, i64, ptr }

@_Py_NoneStruct = external global %struct._object, align 8

; Function Attrs: nounwind uwtable
define internal ptr @reversed_setstate(ptr noundef %0, ptr noundef %1) #0 {
  %3 = alloca ptr, align 8
  %4 = alloca ptr, align 8
  %5 = alloca ptr, align 8
  %6 = alloca ptr, align 8
  %7 = alloca i64, align 8
  %8 = alloca i32, align 4
  %9 = alloca i64, align 8
  store ptr %0, ptr %4, align 8, !tbaa !4
  store ptr %1, ptr %5, align 8, !tbaa !4
  call void @llvm.lifetime.start.p0(i64 8, ptr %6) #7
  %10 = load ptr, ptr %4, align 8, !tbaa !4
  store ptr %10, ptr %6, align 8, !tbaa !9
  call void @llvm.lifetime.start.p0(i64 8, ptr %7) #7
  %11 = load ptr, ptr %5, align 8, !tbaa !4
  %12 = call i64 @PyLong_AsSsize_t(ptr noundef %11)
  store i64 %12, ptr %7, align 8, !tbaa !30
  %13 = load i64, ptr %7, align 8, !tbaa !30
  %14 = icmp eq i64 %13, -1
  br i1 %14, label %15, label %19

15:                                               ; preds = %2
  %16 = call ptr @PyErr_Occurred()
  %17 = icmp ne ptr %16, null
  br i1 %17, label %18, label %19

18:                                               ; preds = %15
  store ptr null, ptr %3, align 8
  store i32 1, ptr %8, align 4
  br label %53

19:                                               ; preds = %15, %2
  %20 = load ptr, ptr %6, align 8, !tbaa !9
  %21 = getelementptr inbounds nuw %struct.reversedobject, ptr %20, i32 0, i32 2
  %22 = load ptr, ptr %21, align 8, !tbaa !33
  %23 = icmp ne ptr %22, null
  br i1 %23, label %24, label %52

24:                                               ; preds = %19
  call void @llvm.lifetime.start.p0(i64 8, ptr %9) #7
  %25 = load ptr, ptr %6, align 8, !tbaa !9
  %26 = getelementptr inbounds nuw %struct.reversedobject, ptr %25, i32 0, i32 2
  %27 = load ptr, ptr %26, align 8, !tbaa !33
  %28 = call i64 @PySequence_Size(ptr noundef %27)
  store i64 %28, ptr %9, align 8, !tbaa !30
  %29 = load i64, ptr %9, align 8, !tbaa !30
  %30 = icmp slt i64 %29, 0
  br i1 %30, label %31, label %32

31:                                               ; preds = %24
  store ptr null, ptr %3, align 8
  store i32 1, ptr %8, align 4
  br label %49

32:                                               ; preds = %24
  %33 = load i64, ptr %7, align 8, !tbaa !30
  %34 = icmp slt i64 %33, -1
  br i1 %34, label %35, label %36

35:                                               ; preds = %32
  store i64 -1, ptr %7, align 8, !tbaa !30
  br label %45

36:                                               ; preds = %32
  %37 = load i64, ptr %7, align 8, !tbaa !30
  %38 = load i64, ptr %9, align 8, !tbaa !30
  %39 = sub i64 %38, 1
  %40 = icmp sgt i64 %37, %39
  br i1 %40, label %41, label %44

41:                                               ; preds = %36
  %42 = load i64, ptr %9, align 8, !tbaa !30
  %43 = sub i64 %42, 1
  store i64 %43, ptr %7, align 8, !tbaa !30
  br label %44

44:                                               ; preds = %41, %36
  br label %45

45:                                               ; preds = %44, %35
  %46 = load i64, ptr %7, align 8, !tbaa !30
  %47 = load ptr, ptr %6, align 8, !tbaa !9
  %48 = getelementptr inbounds nuw %struct.reversedobject, ptr %47, i32 0, i32 1
  store i64 %46, ptr %48, align 8, !tbaa !35
  store i32 0, ptr %8, align 4
  br label %49

49:                                               ; preds = %45, %31
  call void @llvm.lifetime.end.p0(i64 8, ptr %9) #7
  %50 = load i32, ptr %8, align 4
  switch i32 %50, label %53 [
    i32 0, label %51
  ]

51:                                               ; preds = %49
  br label %52

52:                                               ; preds = %51, %19
  store ptr @_Py_NoneStruct, ptr %3, align 8
  store i32 1, ptr %8, align 4
  br label %53

53:                                               ; preds = %52, %49, %18
  call void @llvm.lifetime.end.p0(i64 8, ptr %7) #7
  call void @llvm.lifetime.end.p0(i64 8, ptr %6) #7
  %54 = load ptr, ptr %3, align 8
  ret ptr %54
}