; Function Attrs: nounwind uwtable
define internal noundef ptr @reversed_setstate(ptr noundef captures(none) %0, ptr noundef %1) #0 {
  %3 = tail call i64 @PyLong_AsSsize_t(ptr noundef %1) #4
  %4 = icmp eq i64 %3, -1
  br i1 %4, label %5, label %7

5:                                                ; preds = %2
  %6 = tail call ptr @PyErr_Occurred() #4
  %.not = icmp eq ptr %6, null
  br i1 %.not, label %7, label %.critedge

7:                                                ; preds = %5, %2
  %8 = getelementptr inbounds nuw i8, ptr %0, i64 24
  %9 = load ptr, ptr %8, align 8, !tbaa !117
  %.not19 = icmp eq ptr %9, null
  br i1 %.not19, label %.critedge, label %10

10:                                               ; preds = %7
  %11 = tail call i64 @PySequence_Size(ptr noundef nonnull %9) #4
  %12 = icmp sgt i64 %11, -1
  br i1 %12, label %13, label %.critedge

13:                                               ; preds = %10
  %14 = icmp slt i64 %3, -1
  %.not20 = icmp slt i64 %3, %11
  %15 = add nsw i64 %11, -1
  %spec.select = select i1 %.not20, i64 %3, i64 %15
  %.014 = select i1 %14, i64 -1, i64 %spec.select
  %16 = getelementptr inbounds nuw i8, ptr %0, i64 16
  store i64 %.014, ptr %16, align 8, !tbaa !119
  br label %.critedge

.critedge:                                        ; preds = %7, %13, %10, %5
  %.0 = phi ptr [ null, %5 ], [ null, %10 ], [ @_Py_NoneStruct, %13 ], [ @_Py_NoneStruct, %7 ]
  ret ptr %.0
}